target datalayout = "e-m:e-p270:32:32-p271:32:32-p272:64:64-i64:64-i128:128-f80:128-n8:16:32:64-S128"
target triple = "x86_64-unknown-linux-gnu"

%struct.BlockDriverState = type { i32, i8, i8, i8, i8, i8, ptr, ptr, ptr, %struct.anon, i8, [4096 x i8], [4096 x i8], [4096 x i8], [16 x i8], ptr, [4096 x i8], %struct.BlockLimits, i32, i32, i32, i32, [32 x i8], %union.anon, %union.anon.0, %union.anon.1, i32, [16 x %struct.anon.2], ptr, %struct.anon.3, ptr, ptr, %struct.anon.4, ptr, ptr, i32, ptr, i64, i64, %struct.QemuMutex, %struct.anon.5, %struct.Stat64, i32, i32, i32, i32, i32, i32, %struct.QemuMutex, %struct.anon.6, %struct.CoQueue, i8, i32, i8, %struct.CoMutex, ptr, ptr }
%struct.anon = type { ptr }
%struct.BlockLimits = type { i32, i64, i32, i64, i32, i32, i32, i64, i32, i64, i64, i32, i8, i32, i32, i32, i32, i32, i32, i32 }
%union.anon = type { %struct.QTailQLink }
%struct.QTailQLink = type { ptr, ptr }
%union.anon.0 = type { %struct.QTailQLink }
%union.anon.1 = type { %struct.QTailQLink }
%struct.anon.2 = type { ptr }
%struct.anon.3 = type { ptr }
%struct.anon.4 = type { ptr }
%struct.anon.5 = type { ptr }
%struct.Stat64 = type { i64 }
%struct.QemuMutex = type { %union.pthread_mutex_t, i8 }
%union.pthread_mutex_t = type { %struct.__pthread_mutex_s }
%struct.__pthread_mutex_s = type { i32, i32, i32, i32, i32, i16, i16, %struct.__pthread_internal_list }
%struct.__pthread_internal_list = type { ptr, ptr }
%struct.anon.6 = type { ptr }
%struct.CoQueue = type { %struct.anon.7 }
%struct.anon.7 = type { ptr, ptr }
%struct.CoMutex = type { i32, ptr, %struct.anon.8, %struct.anon.8, i32, i32, ptr }
%struct.anon.8 = type { ptr }
%struct.BDRVQcow2State = type { i32, i32, i32, i32, i32, i32, i32, i32, i32, i32, i32, i32, i32, i32, i64, i64, ptr, ptr, ptr, ptr, i32, %struct.anon.9, ptr, i64, i32, i32, i64, i64, %struct.CoMutex, %struct.Qcow2CryptoHeaderExtension, ptr, ptr, i8, i32, i64, i32, i32, ptr, i32, i64, i64, i32, i32, i8, i32, i32, i64, ptr, ptr, [5 x i8], i8, i32, i8, i64, i64, i64, i64, ptr, %struct.anon.10, %union.anon.11, i8, ptr, ptr, ptr, %struct.CoQueue, i32, ptr, i8, i8, i32 }
%struct.anon.9 = type { ptr }
%struct.Qcow2CryptoHeaderExtension = type { i64, i64 }
%struct.anon.10 = type { ptr }
%union.anon.11 = type { %struct.QTailQLink }

; Function Attrs: nounwind sspstrong uwtable
define dso_local void @qcow2_refcount_close(ptr noundef %bs) #0 {
entry:
  %bs.addr = alloca ptr, align 8
  %s = alloca ptr, align 8
  store ptr %bs, ptr %bs.addr, align 8
  %0 = load ptr, ptr %bs.addr, align 8
  %opaque = getelementptr inbounds %struct.BlockDriverState, ptr %0, i32 0, i32 7
  %1 = load ptr, ptr %opaque, align 8
  store ptr %1, ptr %s, align 8
  %2 = load ptr, ptr %s, align 8
  %refcount_table = getelementptr inbounds %struct.BDRVQcow2State, ptr %2, i32 0, i32 22
  %3 = load ptr, ptr %refcount_table, align 8
  call void @g_free(ptr noundef %3)
  ret void
}