; Function Attrs: nounwind sspstrong uwtable
define dso_local void @qcow2_refcount_close(ptr noundef readonly captures(none) %bs) local_unnamed_addr #0 {
entry:
  %opaque = getelementptr inbounds nuw i8, ptr %bs, i64 24
  %0 = load ptr, ptr %opaque, align 8
  %refcount_table = getelementptr inbounds nuw i8, ptr %0, i64 120
  %1 = load ptr, ptr %refcount_table, align 8
  tail call void @g_free(ptr noundef %1) #17
  ret void
}